; Function Attrs: null_pointer_is_valid sspstrong uwtable
define internal i32 @dissect_bcp_ncp(ptr noundef %0, ptr noundef %1, ptr noundef %2, ptr readnone captures(none) %3) #1 {
  %5 = load i32, ptr @proto_bcp_ncp, align 4
  %6 = load i32, ptr @ett_bcp_ncp, align 4
  %7 = load i32, ptr @ett_bcp_ncp_options, align 4
  %8 = load ptr, ptr @bcp_ncp_option_table, align 8
  tail call fastcc void @dissect_cp(ptr noundef %0, i32 noundef %5, i32 noundef %6, ptr noundef nonnull @lcp_vals, i32 noundef %7, ptr noundef %8, ptr noundef %1, ptr noundef %2)
  %9 = tail call i32 @tvb_captured_length(ptr noundef %0)
  ret i32 %9
}